target datalayout = "e-m:e-p270:32:32-p271:32:32-p272:64:64-i64:64-i128:128-f80:128-n8:16:32:64-S128"
target triple = "x86_64-pc-linux-gnu"

%class.LibRaw = type { ptr, %struct.libraw_data_t, ptr, %struct.libraw_internal_data_t, [2048 x %struct.decode], ptr, ptr, [10 x %struct.tiff_ifd_t], %class.libraw_memmgr, %struct.libraw_callbacks_t, { i64, i64 }, { i64, i64 }, { i64, i64 }, ptr, ptr, ptr, i64, ptr, ptr, ptr, ptr }
%struct.libraw_data_t = type { ptr, %struct.libraw_image_sizes_t, %struct.libraw_iparams_t, %struct.libraw_lensinfo_t, %struct.libraw_makernotes_t, %struct.libraw_shootinginfo_t, %struct.libraw_output_params_t, %struct.libraw_raw_unpack_params_t, i32, i32, %struct.libraw_colordata_t, %struct.libraw_imgother_t, %struct.libraw_thumbnail_t, %struct.libraw_thumbnail_list_t, %struct.libraw_rawdata_t, ptr }
%struct.libraw_image_sizes_t = type { i16, i16, i16, i16, i16, i16, i16, i16, i32, double, i32, [8 x [4 x i32]], i16, [2 x %struct.libraw_raw_inset_crop_t] }
%struct.libraw_raw_inset_crop_t = type { i16, i16, i16, i16 }
%struct.libraw_iparams_t = type { [4 x i8], [64 x i8], [64 x i8], [64 x i8], [64 x i8], [64 x i8], i32, i32, i32, i32, i32, i32, [6 x [6 x i8]], [6 x [6 x i8]], [5 x i8], i32, ptr }
%struct.libraw_lensinfo_t = type { float, float, float, float, float, [128 x i8], [128 x i8], [128 x i8], [128 x i8], i16, %struct.libraw_nikonlens_t, %struct.libraw_dnglens_t, %struct.libraw_makernotes_lens_t }
%struct.libraw_nikonlens_t = type { float, i8, i8, i8, i8 }
%struct.libraw_dnglens_t = type { float, float, float, float }
%struct.libraw_makernotes_lens_t = type { i64, [128 x i8], i16, i16, i64, i16, i16, [64 x i8], i16, [16 x i8], [16 x i8], float, float, float, float, float, float, float, float, float, float, float, float, float, float, float, i64, [128 x i8], i64, [128 x i8], i64, [128 x i8], i16, float }
%struct.libraw_makernotes_t = type { %struct.libraw_canon_makernotes_t, %struct.libraw_nikon_makernotes_t, %struct.libraw_hasselblad_makernotes_t, %struct.libraw_fuji_info_t, %struct.libraw_olympus_makernotes_t, %struct.libraw_sony_info_t, %struct.libraw_kodak_makernotes_t, %struct.libraw_panasonic_makernotes_t, %struct.libraw_pentax_makernotes_t, %struct.libraw_p1_makernotes_t, %struct.libraw_ricoh_makernotes_t, %struct.libraw_samsung_makernotes_t, %struct.libraw_metadata_common_t }
%struct.libraw_canon_makernotes_t = type { i32, i32, i32, i32, [4 x i32], i32, [4 x i32], i16, i16, i8, i16, i16, i16, i16, i16, i16, i16, i16, i16, i16, i16, i16, i16, i32, float, i16, i16, i16, i32, i16, i32, i32, i16, i32, %struct.libraw_area_t, %struct.libraw_area_t, %struct.libraw_area_t, %struct.libraw_area_t, %struct.libraw_area_t, [2 x i16] }
%struct.libraw_area_t = type { i16, i16, i16, i16 }
%struct.libraw_nikon_makernotes_t = type { double, i16, i16, [7 x i8], i8, i8, [13 x i8], [20 x i8], [4 x i8], [4 x i8], [4 x i8], i8, i8, i8, i8, i8, [2 x i8], i8, i8, i8, i8, i8, [4 x i8], [4 x i8], i8, i16, i32, i32, i32, i32, [4 x double], i8, i8, i8, i32, i32, i32, i8, [4 x i16], i16, %struct.libraw_sensor_highspeed_crop_t, i16, i16, i16, i32, [20 x i8], [20 x i8], i32, i16, double, double, double }
%struct.libraw_sensor_highspeed_crop_t = type { i16, i16, i16, i16 }
%struct.libraw_hasselblad_makernotes_t = type { i32, double, [8 x i8], [64 x i8], [64 x i8], i32, i32, i32, i32, [32 x i8], [64 x i8], i32, [2 x i32], [2 x i32], [4 x [3 x double]] }
%struct.libraw_fuji_info_t = type { float, i16, i16, i16, i16, i16, i16, i16, i16, [33 x i8], [33 x i8], float, i16, i16, [2 x i16], i16, i32, i32, i16, [3 x i16], i16, i16, i16, i16, i16, i32, i16, [13 x i8], [5 x i8], [5 x i8], i32, i16, i32, i16, [9 x i16], [32 x i32], i32, i32, i32, [2 x float], i32 }
%struct.libraw_olympus_makernotes_t = type { [6 x i8], i16, [2 x i32], [5 x i16], i16, [2 x i16], i16, i16, [64 x i32], [5 x double], i16, i8, [3 x i16], [3 x i32], i16, i16, i16, i16, double, [4 x i16], [2 x i32], i8, i32, i16, i16 }
%struct.libraw_sony_info_t = type { i16, i8, i8, i32, i8, i32, i8, i8, i16, [2 x i16], i8, i8, i16, [10 x i8], i8, i8, [4 x i16], i16, i8, i8, i8, i16, i32, i16, [2 x i16], i16, i16, i16, i16, i16, i16, i16, i32, float, i16, i32, i32, i16, [20 x i8], i32, i16, i32, i8, i8, i16, i16, i16, i16, i16, i16, i16, i16, i16, i32, i16, [16 x i8], float }
%struct.libraw_kodak_makernotes_t = type { i16, i16, i16, i16, i16, i16, [3 x [3 x float]], [3 x [3 x float]], [3 x [3 x float]], [3 x [3 x float]], [3 x [3 x float]], [3 x [3 x float]], i16, i16, i16, i16, float, float }
%struct.libraw_panasonic_makernotes_t = type { i16, i16, [8 x float], i32, float, [3 x i32], i16, i16, i32, i32 }
%struct.libraw_pentax_makernotes_t = type { [4 x i8], [2 x i16], [2 x i16], i16, i32, i32, i16, i16, i8, i8, i16 }
%struct.libraw_p1_makernotes_t = type { [64 x i8], [64 x i8], [256 x i8], [64 x i8] }
%struct.libraw_ricoh_makernotes_t = type { i16, [2 x i32], [2 x i32], i16, i32, i32, i32, i32, i16, i16, i16, i16, i16, i16, double, double }
%struct.libraw_samsung_makernotes_t = type { [4 x i32], [4 x i32], [2 x i32], [11 x i32], double, i32, [32 x i8] }
%struct.libraw_metadata_common_t = type { float, float, float, float, float, float, float, float, float, float, float, float, float, float, float, float, i16, [128 x i8], float, [4 x %struct.libraw_afinfo_item_t], i32 }
%struct.libraw_afinfo_item_t = type { i32, i16, i32, i32, ptr }
%struct.libraw_shootinginfo_t = type { i16, i16, i16, i16, i16, i16, i16, [64 x i8], [64 x i8] }
%struct.libraw_output_params_t = type { [4 x i32], [4 x i32], [4 x double], [6 x double], [4 x float], float, float, i32, i32, i32, i32, i32, i32, i32, ptr, ptr, ptr, ptr, i32, i32, i32, i32, i32, i32, [4 x i32], i32, i32, float, float, i32, i32, i32, i32, i32, i32, i32, i32, float, float, i32, i32 }
%struct.libraw_raw_unpack_params_t = type { i32, i32, i32, i32, i32, i32, i32, float, [5 x i8], ptr }
%struct.libraw_colordata_t = type { [65536 x i16], [4104 x i32], i32, i32, i32, [4 x i64], float, float, [8 x [8 x i16]], [4 x float], [4 x float], [3 x [4 x float]], [3 x [4 x float]], [3 x [4 x float]], [4 x [3 x float]], %struct.ph1_t, float, float, [64 x i8], [64 x i8], [64 x i8], [64 x i8], [17 x i8], [64 x i8], ptr, i32, [8 x i32], [2 x %struct.libraw_dng_color_t], %struct.libraw_dng_levels_t, [256 x [4 x i32]], [64 x [5 x float]], i32, [2 x %struct.libraw_P1_color_t], i32, i32 }
%struct.ph1_t = type { i32, i32, i32, i32, i32, i32, i32, i32, float }
%struct.libraw_dng_color_t = type { i32, i16, [4 x [4 x float]], [4 x [3 x float]], [3 x [4 x float]] }
%struct.libraw_dng_levels_t = type { i32, [4104 x i32], i32, [4104 x float], float, [4 x i32], [4 x i16], [4 x float], i32, [4 x float], [4 x float], float, float }
%struct.libraw_P1_color_t = type { [9 x float] }
%struct.libraw_imgother_t = type { float, float, float, float, i64, i32, [32 x i32], %struct.libraw_gps_info_t, [512 x i8], [64 x i8], [4 x float] }
%struct.libraw_gps_info_t = type { [3 x float], [3 x float], [3 x float], float, i8, i8, i8, i8, i8 }
%struct.libraw_thumbnail_t = type { i32, i16, i16, i32, i32, ptr }
%struct.libraw_thumbnail_list_t = type { i32, [8 x %struct.libraw_thumbnail_item_t] }
%struct.libraw_thumbnail_item_t = type { i32, i16, i16, i16, i32, i32, i64 }
%struct.libraw_rawdata_t = type { ptr, ptr, ptr, ptr, ptr, ptr, ptr, ptr, ptr, %struct.libraw_iparams_t, %struct.libraw_image_sizes_t, %struct.libraw_internal_output_params_t, %struct.libraw_colordata_t }
%struct.libraw_internal_output_params_t = type { i32, i32, i32, i16, i16 }
%struct.libraw_internal_data_t = type { %struct.internal_data_t, %struct.libraw_internal_output_params_t, %struct.output_data_t, %struct.identify_data_t, %struct.unpacker_data_t }
%struct.internal_data_t = type { ptr, ptr, i32, ptr, i64, i64, [4 x i32] }
%struct.output_data_t = type { ptr, ptr }
%struct.identify_data_t = type { i32, i64, i64, i32, i32, i32 }
%struct.unpacker_data_t = type { i16, [4 x i16], [3 x i16], i32, i64, i64, i64, i64, i64, i64, i32, i32, i32, i32, i32, i32, i32, i32, i32, i32, i32, i32, i32, i32, i32, i32, i32, i64, i32, i32, i32, i32, i32, i32, i32, i32, i32, %struct.pana8_tags_t, [16 x %struct.crx_data_header_t], i32, i32, i16, i16, i32, i32, i32, i32, i32, i32, i32, [20 x i32], i16 }
%struct.pana8_tags_t = type { [6 x i32], [6 x i16], i16, [4 x i16], [17 x i16], [17 x i16], [17 x i16], i16, i16, [5 x i64], [5 x i16], [5 x i32], [5 x i16], [5 x i16] }
%struct.crx_data_header_t = type { i32, i32, i32, i32, i32, i32, i32, i32, i32, i32, i32, i32, i32, i32, i32, i64, i32, ptr, i32, i32, i32, ptr, i32, ptr }
%struct.decode = type { [2 x ptr], i32 }
%struct.tiff_ifd_t = type { i32, i32, i32, i32, i32, i32, i32, i32, i32, i32, i32, i32, i32, i32, i32, ptr, i32, ptr, i32, i32, i32, i32, i32, i32, i32, float, i64, i64, i32, [2 x %struct.libraw_dng_color_t], %struct.libraw_dng_levels_t, i32 }
%class.libraw_memmgr = type <{ ptr, i32, [4 x i8] }>
%struct.libraw_callbacks_t = type { ptr, ptr, ptr, ptr, ptr, ptr, ptr, ptr, ptr, ptr, ptr, ptr, ptr, ptr, ptr, ptr, ptr }

; Function Attrs: mustprogress uwtable
define void @_ZN6LibRaw26unpacked_load_raw_reversedEv(ptr noundef nonnull align 8 dereferenceable(767680) %0) #0 align 2 {
  %2 = alloca ptr, align 8
  %3 = alloca i32, align 4
  %4 = alloca i32, align 4
  %5 = alloca i32, align 4
  store ptr %0, ptr %2, align 8, !tbaa !6
  %6 = load ptr, ptr %2, align 8
  call void @llvm.lifetime.start.p0(i64 4, ptr %3) #13
  call void @llvm.lifetime.start.p0(i64 4, ptr %4) #13
  call void @llvm.lifetime.start.p0(i64 4, ptr %5) #13
  store i32 0, ptr %5, align 4, !tbaa !73
  br label %7

7:                                                ; preds = %16, %1
  %8 = load i32, ptr %5, align 4, !tbaa !73
  %9 = add nsw i32 %8, 1
  store i32 %9, ptr %5, align 4, !tbaa !73
  %10 = shl i32 1, %9
  %11 = getelementptr inbounds nuw %class.LibRaw, ptr %6, i32 0, i32 1
  %12 = getelementptr inbounds nuw %struct.libraw_data_t, ptr %11, i32 0, i32 10
  %13 = getelementptr inbounds nuw %struct.libraw_colordata_t, ptr %12, i32 0, i32 4
  %14 = load i32, ptr %13, align 8, !tbaa !141
  %15 = icmp slt i32 %10, %14
  br i1 %15, label %16, label %17

16:                                               ; preds = %7
  br label %7, !llvm.loop !142

17:                                               ; preds = %7
  %18 = getelementptr inbounds nuw %class.LibRaw, ptr %6, i32 0, i32 1
  %19 = getelementptr inbounds nuw %struct.libraw_data_t, ptr %18, i32 0, i32 1
  %20 = getelementptr inbounds nuw %struct.libraw_image_sizes_t, ptr %19, i32 0, i32 0
  %21 = load i16, ptr %20, align 8, !tbaa !79
  %22 = zext i16 %21 to i32
  %23 = sub nsw i32 %22, 1
  store i32 %23, ptr %3, align 4, !tbaa !73
  br label %24

24:                                               ; preds = %116, %17
  %25 = load i32, ptr %3, align 4, !tbaa !73
  %26 = icmp sge i32 %25, 0
  br i1 %26, label %27, label %119

27:                                               ; preds = %24
  call void @_ZN6LibRaw11checkCancelEv(ptr noundef nonnull align 8 dereferenceable(767680) %6)
  %28 = getelementptr inbounds nuw %class.LibRaw, ptr %6, i32 0, i32 1
  %29 = getelementptr inbounds nuw %struct.libraw_data_t, ptr %28, i32 0, i32 14
  %30 = getelementptr inbounds nuw %struct.libraw_rawdata_t, ptr %29, i32 0, i32 1
  %31 = load ptr, ptr %30, align 8, !tbaa !102
  %32 = load i32, ptr %3, align 4, !tbaa !73
  %33 = getelementptr inbounds nuw %class.LibRaw, ptr %6, i32 0, i32 1
  %34 = getelementptr inbounds nuw %struct.libraw_data_t, ptr %33, i32 0, i32 1
  %35 = getelementptr inbounds nuw %struct.libraw_image_sizes_t, ptr %34, i32 0, i32 1
  %36 = load i16, ptr %35, align 2, !tbaa !74
  %37 = zext i16 %36 to i32
  %38 = mul nsw i32 %32, %37
  %39 = sext i32 %38 to i64
  %40 = getelementptr inbounds i16, ptr %31, i64 %39
  %41 = getelementptr inbounds nuw %class.LibRaw, ptr %6, i32 0, i32 1
  %42 = getelementptr inbounds nuw %struct.libraw_data_t, ptr %41, i32 0, i32 1
  %43 = getelementptr inbounds nuw %struct.libraw_image_sizes_t, ptr %42, i32 0, i32 1
  %44 = load i16, ptr %43, align 2, !tbaa !74
  %45 = zext i16 %44 to i32
  call void @_ZN6LibRaw11read_shortsEPtj(ptr noundef nonnull align 8 dereferenceable(767680) %6, ptr noundef %40, i32 noundef %45)
  store i32 0, ptr %4, align 4, !tbaa !73
  br label %46

46:                                               ; preds = %112, %27
  %47 = load i32, ptr %4, align 4, !tbaa !73
  %48 = getelementptr inbounds nuw %class.LibRaw, ptr %6, i32 0, i32 1
  %49 = getelementptr inbounds nuw %struct.libraw_data_t, ptr %48, i32 0, i32 1
  %50 = getelementptr inbounds nuw %struct.libraw_image_sizes_t, ptr %49, i32 0, i32 1
  %51 = load i16, ptr %50, align 2, !tbaa !74
  %52 = zext i16 %51 to i32
  %53 = icmp slt i32 %47, %52
  br i1 %53, label %54, label %115

54:                                               ; preds = %46
  %55 = getelementptr inbounds nuw %class.LibRaw, ptr %6, i32 0, i32 3
  %56 = getelementptr inbounds nuw %struct.libraw_internal_data_t, ptr %55, i32 0, i32 4
  %57 = getelementptr inbounds nuw %struct.unpacker_data_t, ptr %56, i32 0, i32 24
  %58 = load i32, ptr %57, align 8, !tbaa !143
  %59 = getelementptr inbounds nuw %class.LibRaw, ptr %6, i32 0, i32 1
  %60 = getelementptr inbounds nuw %struct.libraw_data_t, ptr %59, i32 0, i32 14
  %61 = getelementptr inbounds nuw %struct.libraw_rawdata_t, ptr %60, i32 0, i32 1
  %62 = load ptr, ptr %61, align 8, !tbaa !102
  %63 = load i32, ptr %3, align 4, !tbaa !73
  %64 = getelementptr inbounds nuw %class.LibRaw, ptr %6, i32 0, i32 1
  %65 = getelementptr inbounds nuw %struct.libraw_data_t, ptr %64, i32 0, i32 1
  %66 = getelementptr inbounds nuw %struct.libraw_image_sizes_t, ptr %65, i32 0, i32 1
  %67 = load i16, ptr %66, align 2, !tbaa !74
  %68 = zext i16 %67 to i32
  %69 = mul nsw i32 %63, %68
  %70 = load i32, ptr %4, align 4, !tbaa !73
  %71 = add nsw i32 %69, %70
  %72 = sext i32 %71 to i64
  %73 = getelementptr inbounds i16, ptr %62, i64 %72
  %74 = load i16, ptr %73, align 2, !tbaa !86
  %75 = zext i16 %74 to i32
  %76 = ashr i32 %75, %58
  %77 = trunc i32 %76 to i16
  store i16 %77, ptr %73, align 2, !tbaa !86
  %78 = zext i16 %77 to i32
  %79 = load i32, ptr %5, align 4, !tbaa !73
  %80 = ashr i32 %78, %79
  %81 = icmp ne i32 %80, 0
  br i1 %81, label %82, label %111

82:                                               ; preds = %54
  %83 = load i32, ptr %3, align 4, !tbaa !73
  %84 = getelementptr inbounds nuw %class.LibRaw, ptr %6, i32 0, i32 1
  %85 = getelementptr inbounds nuw %struct.libraw_data_t, ptr %84, i32 0, i32 1
  %86 = getelementptr inbounds nuw %struct.libraw_image_sizes_t, ptr %85, i32 0, i32 4
  %87 = load i16, ptr %86, align 8, !tbaa !144
  %88 = zext i16 %87 to i32
  %89 = sub nsw i32 %83, %88
  %90 = getelementptr inbounds nuw %class.LibRaw, ptr %6, i32 0, i32 1
  %91 = getelementptr inbounds nuw %struct.libraw_data_t, ptr %90, i32 0, i32 1
  %92 = getelementptr inbounds nuw %struct.libraw_image_sizes_t, ptr %91, i32 0, i32 2
  %93 = load i16, ptr %92, align 4, !tbaa !145
  %94 = zext i16 %93 to i32
  %95 = icmp ult i32 %89, %94
  br i1 %95, label %96, label %111

96:                                               ; preds = %82
  %97 = load i32, ptr %4, align 4, !tbaa !73
  %98 = getelementptr inbounds nuw %class.LibRaw, ptr %6, i32 0, i32 1
  %99 = getelementptr inbounds nuw %struct.libraw_data_t, ptr %98, i32 0, i32 1
  %100 = getelementptr inbounds nuw %struct.libraw_image_sizes_t, ptr %99, i32 0, i32 5
  %101 = load i16, ptr %100, align 2, !tbaa !146
  %102 = zext i16 %101 to i32
  %103 = sub nsw i32 %97, %102
  %104 = getelementptr inbounds nuw %class.LibRaw, ptr %6, i32 0, i32 1
  %105 = getelementptr inbounds nuw %struct.libraw_data_t, ptr %104, i32 0, i32 1
  %106 = getelementptr inbounds nuw %struct.libraw_image_sizes_t, ptr %105, i32 0, i32 3
  %107 = load i16, ptr %106, align 2, !tbaa !108
  %108 = zext i16 %107 to i32
  %109 = icmp ult i32 %103, %108
  br i1 %109, label %110, label %111

110:                                              ; preds = %96
  call void @_ZN6LibRaw6derrorEv(ptr noundef nonnull align 8 dereferenceable(767680) %6)
  br label %111

111:                                              ; preds = %110, %96, %82, %54
  br label %112

112:                                              ; preds = %111
  %113 = load i32, ptr %4, align 4, !tbaa !73
  %114 = add nsw i32 %113, 1
  store i32 %114, ptr %4, align 4, !tbaa !73
  br label %46, !llvm.loop !147

115:                                              ; preds = %46
  br label %116

116:                                              ; preds = %115
  %117 = load i32, ptr %3, align 4, !tbaa !73
  %118 = add nsw i32 %117, -1
  store i32 %118, ptr %3, align 4, !tbaa !73
  br label %24, !llvm.loop !148

119:                                              ; preds = %24
  call void @llvm.lifetime.end.p0(i64 4, ptr %5) #13
  call void @llvm.lifetime.end.p0(i64 4, ptr %4) #13
  call void @llvm.lifetime.end.p0(i64 4, ptr %3) #13
  ret void
}