; Function Attrs: mustprogress uwtable
define void @_ZN6LibRaw26unpacked_load_raw_reversedEv(ptr noundef nonnull align 8 dereferenceable(767680) %0) local_unnamed_addr #0 align 2 {
  %2 = getelementptr inbounds nuw i8, ptr %0, i64 153000
  %3 = load i32, ptr %2, align 8, !tbaa !124
  br label %4

4:                                                ; preds = %4, %1
  %.0 = phi i32 [ 0, %1 ], [ %5, %4 ]
  %5 = add nuw nsw i32 %.0, 1
  %6 = shl nuw i32 2, %.0
  %7 = icmp slt i32 %6, %3
  br i1 %7, label %4, label %8, !llvm.loop !125

8:                                                ; preds = %4
  %9 = getelementptr inbounds nuw i8, ptr %0, i64 16
  %10 = load i16, ptr %9, align 8, !tbaa !78
  %.not18 = icmp eq i16 %10, 0
  br i1 %.not18, label %._crit_edge, label %.lr.ph17

.lr.ph17:                                         ; preds = %8
  %11 = zext i16 %10 to i32
  %12 = getelementptr inbounds nuw i8, ptr %0, i64 193648
  %13 = getelementptr inbounds nuw i8, ptr %0, i64 18
  %14 = getelementptr inbounds nuw i8, ptr %0, i64 381680
  %15 = getelementptr inbounds nuw i8, ptr %0, i64 24
  %16 = getelementptr inbounds nuw i8, ptr %0, i64 20
  %17 = getelementptr inbounds nuw i8, ptr %0, i64 26
  %18 = getelementptr inbounds nuw i8, ptr %0, i64 22
  br label %20

.loopexit:                                        ; preds = %56, %20
  %19 = icmp sgt i32 %.01216.in, 1
  br i1 %19, label %20, label %._crit_edge, !llvm.loop !126

20:                                               ; preds = %.lr.ph17, %.loopexit
  %.01216.in = phi i32 [ %11, %.lr.ph17 ], [ %.01216, %.loopexit ]
  %.01216 = add nsw i32 %.01216.in, -1
  tail call void @_ZN6LibRaw11checkCancelEv(ptr noundef nonnull align 8 dereferenceable(767680) %0)
  %21 = load ptr, ptr %12, align 8, !tbaa !101
  %22 = load i16, ptr %13, align 2, !tbaa !72
  %23 = zext i16 %22 to i32
  %24 = mul nuw nsw i32 %.01216, %23
  %25 = zext nneg i32 %24 to i64
  %26 = getelementptr inbounds nuw i16, ptr %21, i64 %25
  tail call void @_ZN6LibRaw11read_shortsEPtj(ptr noundef nonnull align 8 dereferenceable(767680) %0, ptr noundef %26, i32 noundef %23)
  %27 = load i16, ptr %13, align 2, !tbaa !72
  %.not19 = icmp eq i16 %27, 0
  br i1 %.not19, label %.loopexit, label %.lr.ph.preheader

.lr.ph.preheader:                                 ; preds = %20
  %28 = zext i16 %27 to i32
  br label %.lr.ph

.lr.ph:                                           ; preds = %.lr.ph.preheader, %56
  %29 = phi i32 [ %59, %56 ], [ %28, %.lr.ph.preheader ]
  %.01114 = phi i32 [ %57, %56 ], [ 0, %.lr.ph.preheader ]
  %30 = load i32, ptr %14, align 8, !tbaa !127
  %31 = load ptr, ptr %12, align 8, !tbaa !101
  %32 = mul nuw nsw i32 %29, %.01216
  %33 = add nsw i32 %32, %.01114
  %34 = sext i32 %33 to i64
  %35 = getelementptr inbounds i16, ptr %31, i64 %34
  %36 = load i16, ptr %35, align 2, !tbaa !77
  %37 = zext i16 %36 to i32
  %38 = lshr i32 %37, %30
  %39 = trunc nuw i32 %38 to i16
  store i16 %39, ptr %35, align 2, !tbaa !77
  %40 = lshr i32 %38, %5
  %.not = icmp eq i32 %40, 0
  br i1 %.not, label %56, label %41

41:                                               ; preds = %.lr.ph
  %42 = load i16, ptr %15, align 8, !tbaa !128
  %43 = zext i16 %42 to i32
  %44 = sub nsw i32 %.01216, %43
  %45 = load i16, ptr %16, align 4, !tbaa !129
  %46 = zext i16 %45 to i32
  %47 = icmp ult i32 %44, %46
  br i1 %47, label %48, label %56

48:                                               ; preds = %41
  %49 = load i16, ptr %17, align 2, !tbaa !130
  %50 = zext i16 %49 to i32
  %51 = sub nsw i32 %.01114, %50
  %52 = load i16, ptr %18, align 2, !tbaa !97
  %53 = zext i16 %52 to i32
  %54 = icmp ult i32 %51, %53
  br i1 %54, label %55, label %56

55:                                               ; preds = %48
  tail call void @_ZN6LibRaw6derrorEv(ptr noundef nonnull align 8 dereferenceable(767680) %0)
  br label %56

56:                                               ; preds = %.lr.ph, %41, %48, %55
  %57 = add nuw nsw i32 %.01114, 1
  %58 = load i16, ptr %13, align 2, !tbaa !72
  %59 = zext i16 %58 to i32
  %60 = icmp samesign ult i32 %57, %59
  br i1 %60, label %.lr.ph, label %.loopexit, !llvm.loop !131

._crit_edge:                                      ; preds = %.loopexit, %8
  ret void
}